; Function Attrs: mustprogress uwtable
define void @_ZNK5Ipopt6Vector5PrintENS_8SmartPtrIKNS_10JournalistEEENS_13EJournalLevelENS_16EJournalCategoryERKNSt7__cxx1112basic_stringIcSt11char_traitsIcESaIcEEEiSE_(ptr noundef nonnull align 8 dereferenceable(205) %0, ptr nocapture noundef readonly %1, i32 noundef %2, i32 noundef %3, ptr noundef nonnull align 8 dereferenceable(32) %4, i32 noundef %5, ptr noundef nonnull align 8 dereferenceable(32) %6) local_unnamed_addr #0 align 2 {
  %8 = load ptr, ptr %1, align 8
  %.not = icmp eq ptr %8, null
  br i1 %.not, label %19, label %9

9:                                                ; preds = %7
  %10 = load ptr, ptr %8, align 8
  %11 = getelementptr inbounds i8, ptr %10, i64 56
  %12 = load ptr, ptr %11, align 8
  %13 = tail call noundef zeroext i1 %12(ptr noundef nonnull align 8 dereferenceable(40) %8, i32 noundef %2, i32 noundef %3)
  br i1 %13, label %14, label %19

14:                                               ; preds = %9
  %15 = load ptr, ptr %1, align 8
  %16 = load ptr, ptr %0, align 8
  %17 = getelementptr inbounds i8, ptr %16, i64 224
  %18 = load ptr, ptr %17, align 8
  tail call void %18(ptr noundef nonnull align 8 dereferenceable(205) %0, ptr noundef nonnull align 8 dereferenceable(40) %15, i32 noundef %2, i32 noundef %3, ptr noundef nonnull align 8 dereferenceable(32) %4, i32 noundef %5, ptr noundef nonnull align 8 dereferenceable(32) %6)
  br label %19

19:                                               ; preds = %14, %9, %7
  ret void
}